target datalayout = "e-m:e-p270:32:32-p271:32:32-p272:64:64-i64:64-i128:128-f80:128-n8:16:32:64-S128"
target triple = "x86_64-pc-linux-gnu"

%struct.cavs_vector = type { i16, i16, i16, i16 }
%struct.AVSContext = type { ptr, %struct.BlockDSPContext, %struct.H264ChromaContext, %struct.VideoDSPContext, %struct.CAVSDSPContext, %struct.GetBitContext, %struct.AVSFrame, [2 x %struct.AVSFrame], [2 x i32], i32, i32, i32, i32, i32, i32, i32, i32, i32, i32, i32, i32, i32, i32, i32, i32, i32, i32, i32, i32, i32, ptr, ptr, ptr, i32, ptr, [24 x %struct.cavs_vector], [2 x ptr], ptr, [9 x i32], ptr, i64, i64, [4 x i32], i32, i32, i32, i32, [64 x i8], ptr, ptr, ptr, [26 x i8], [10 x i8], [10 x i8], [26 x i8], i8, i8, i8, [8 x ptr], [7 x ptr], ptr, i32, [2 x i32], [2 x i32], ptr, i32, ptr }
%struct.BlockDSPContext = type { ptr, ptr, [2 x ptr] }
%struct.H264ChromaContext = type { [4 x ptr], [4 x ptr] }
%struct.VideoDSPContext = type { ptr, ptr }
%struct.CAVSDSPContext = type { [2 x [16 x ptr]], [2 x [16 x ptr]], ptr, ptr, ptr, ptr, ptr, i32 }
%struct.GetBitContext = type { ptr, ptr, i32, i32, i32 }
%struct.AVSFrame = type { ptr, i32 }
%struct.AVRational = type { i32, i32 }
%struct.AVChannelLayout = type { i32, i32, %union.anon, ptr }
%union.anon = type { i64 }
%struct.AVCodecContext = type { ptr, i32, i32, ptr, i32, i32, ptr, ptr, ptr, i64, i32, i32, ptr, i32, %struct.AVRational, %struct.AVRational, %struct.AVRational, i32, i32, i32, i32, i32, %struct.AVRational, i32, i32, i32, i32, i32, i32, i32, i32, i32, i32, i32, ptr, ptr, i32, float, float, float, float, float, float, float, float, float, i32, i32, i32, i32, i32, i32, i32, i32, i32, i32, i32, i32, ptr, ptr, ptr, i32, i32, i32, i32, i32, i32, i32, i32, i32, i32, %struct.AVChannelLayout, i32, i32, i32, i32, i32, i32, i32, i32, ptr, i32, i32, i32, float, float, i32, i32, i32, i32, i32, ptr, i64, i64, float, float, i32, i32, ptr, ptr, i32, i32, i32, i32, i32, ptr, ptr, ptr, ptr, i32, i32, [8 x i64], i32, i32, i32, i32, i32, i32, i32, ptr, ptr, i32, i32, i32, i32, i32, i32, i32, i32, i32, i32, ptr, ptr, i32, i32, ptr, ptr, ptr, ptr, i32, i32, i64, i32, i32, i64, ptr, i64, ptr, i32, ptr, i32 }

@un_mv = internal constant %struct.cavs_vector { i16 0, i16 0, i16 1, i16 -1 }, align 2
@ff_zigzag_direct = external constant [64 x i8], align 16

; Function Attrs: cold nounwind optsize uwtable
define i32 @ff_cavs_init(ptr noundef %0) #7 {
  %2 = alloca i32, align 4
  %3 = alloca ptr, align 8
  %4 = alloca ptr, align 8
  %5 = alloca [64 x i8], align 16
  %6 = alloca i32, align 4
  store ptr %0, ptr %3, align 8, !tbaa !90
  call void @llvm.lifetime.start.p0(i64 8, ptr %4) #10
  %7 = load ptr, ptr %3, align 8, !tbaa !90
  %8 = getelementptr inbounds nuw %struct.AVCodecContext, ptr %7, i32 0, i32 6
  %9 = load ptr, ptr %8, align 8, !tbaa !91
  store ptr %9, ptr %4, align 8, !tbaa !4
  call void @llvm.lifetime.start.p0(i64 64, ptr %5) #10
  %10 = load ptr, ptr %4, align 8, !tbaa !4
  %11 = getelementptr inbounds nuw %struct.AVSContext, ptr %10, i32 0, i32 1
  call void @ff_blockdsp_init(ptr noundef %11)
  %12 = load ptr, ptr %4, align 8, !tbaa !4
  %13 = getelementptr inbounds nuw %struct.AVSContext, ptr %12, i32 0, i32 2
  call void @ff_h264chroma_init(ptr noundef %13, i32 noundef 8)
  %14 = load ptr, ptr %4, align 8, !tbaa !4
  %15 = getelementptr inbounds nuw %struct.AVSContext, ptr %14, i32 0, i32 3
  call void @ff_videodsp_init(ptr noundef %15, i32 noundef 8)
  %16 = load ptr, ptr %4, align 8, !tbaa !4
  %17 = getelementptr inbounds nuw %struct.AVSContext, ptr %16, i32 0, i32 4
  call void @ff_cavsdsp_init(ptr noundef %17)
  %18 = getelementptr inbounds [64 x i8], ptr %5, i64 0, i64 0
  %19 = load ptr, ptr %4, align 8, !tbaa !4
  %20 = getelementptr inbounds nuw %struct.AVSContext, ptr %19, i32 0, i32 4
  %21 = getelementptr inbounds nuw %struct.CAVSDSPContext, ptr %20, i32 0, i32 7
  %22 = load i32, ptr %21, align 8, !tbaa !105
  call void @ff_init_scantable_permutation(ptr noundef %18, i32 noundef %22)
  %23 = load ptr, ptr %4, align 8, !tbaa !4
  %24 = getelementptr inbounds nuw %struct.AVSContext, ptr %23, i32 0, i32 47
  %25 = getelementptr inbounds [64 x i8], ptr %24, i64 0, i64 0
  %26 = getelementptr inbounds [64 x i8], ptr %5, i64 0, i64 0
  call void @ff_permute_scantable(ptr noundef %25, ptr noundef @ff_zigzag_direct, ptr noundef %26)
  %27 = load ptr, ptr %3, align 8, !tbaa !90
  %28 = load ptr, ptr %4, align 8, !tbaa !4
  %29 = getelementptr inbounds nuw %struct.AVSContext, ptr %28, i32 0, i32 0
  store ptr %27, ptr %29, align 8, !tbaa !71
  %30 = load ptr, ptr %3, align 8, !tbaa !90
  %31 = getelementptr inbounds nuw %struct.AVCodecContext, ptr %30, i32 0, i32 23
  store i32 0, ptr %31, align 8, !tbaa !106
  %32 = call ptr @av_frame_alloc()
  %33 = load ptr, ptr %4, align 8, !tbaa !4
  %34 = getelementptr inbounds nuw %struct.AVSContext, ptr %33, i32 0, i32 6
  %35 = getelementptr inbounds nuw %struct.AVSFrame, ptr %34, i32 0, i32 0
  store ptr %32, ptr %35, align 8, !tbaa !84
  %36 = call ptr @av_frame_alloc()
  %37 = load ptr, ptr %4, align 8, !tbaa !4
  %38 = getelementptr inbounds nuw %struct.AVSContext, ptr %37, i32 0, i32 7
  %39 = getelementptr inbounds [2 x %struct.AVSFrame], ptr %38, i64 0, i64 0
  %40 = getelementptr inbounds nuw %struct.AVSFrame, ptr %39, i32 0, i32 0
  store ptr %36, ptr %40, align 8, !tbaa !68
  %41 = call ptr @av_frame_alloc()
  %42 = load ptr, ptr %4, align 8, !tbaa !4
  %43 = getelementptr inbounds nuw %struct.AVSContext, ptr %42, i32 0, i32 7
  %44 = getelementptr inbounds [2 x %struct.AVSFrame], ptr %43, i64 0, i64 1
  %45 = getelementptr inbounds nuw %struct.AVSFrame, ptr %44, i32 0, i32 0
  store ptr %41, ptr %45, align 8, !tbaa !68
  %46 = load ptr, ptr %4, align 8, !tbaa !4
  %47 = getelementptr inbounds nuw %struct.AVSContext, ptr %46, i32 0, i32 6
  %48 = getelementptr inbounds nuw %struct.AVSFrame, ptr %47, i32 0, i32 0
  %49 = load ptr, ptr %48, align 8, !tbaa !84
  %50 = icmp ne ptr %49, null
  br i1 %50, label %51, label %65

51:                                               ; preds = %1
  %52 = load ptr, ptr %4, align 8, !tbaa !4
  %53 = getelementptr inbounds nuw %struct.AVSContext, ptr %52, i32 0, i32 7
  %54 = getelementptr inbounds [2 x %struct.AVSFrame], ptr %53, i64 0, i64 0
  %55 = getelementptr inbounds nuw %struct.AVSFrame, ptr %54, i32 0, i32 0
  %56 = load ptr, ptr %55, align 8, !tbaa !68
  %57 = icmp ne ptr %56, null
  br i1 %57, label %58, label %65

58:                                               ; preds = %51
  %59 = load ptr, ptr %4, align 8, !tbaa !4
  %60 = getelementptr inbounds nuw %struct.AVSContext, ptr %59, i32 0, i32 7
  %61 = getelementptr inbounds [2 x %struct.AVSFrame], ptr %60, i64 0, i64 1
  %62 = getelementptr inbounds nuw %struct.AVSFrame, ptr %61, i32 0, i32 0
  %63 = load ptr, ptr %62, align 8, !tbaa !68
  %64 = icmp ne ptr %63, null
  br i1 %64, label %66, label %65

65:                                               ; preds = %58, %51, %1
  store i32 -12, ptr %2, align 4
  store i32 1, ptr %6, align 4
  br label %124

66:                                               ; preds = %58
  %67 = load ptr, ptr %4, align 8, !tbaa !4
  %68 = getelementptr inbounds nuw %struct.AVSContext, ptr %67, i32 0, i32 42
  %69 = getelementptr inbounds [4 x i32], ptr %68, i64 0, i64 0
  store i32 0, ptr %69, align 8, !tbaa !9
  %70 = load ptr, ptr %4, align 8, !tbaa !4
  %71 = getelementptr inbounds nuw %struct.AVSContext, ptr %70, i32 0, i32 42
  %72 = getelementptr inbounds [4 x i32], ptr %71, i64 0, i64 1
  store i32 8, ptr %72, align 4, !tbaa !9
  %73 = load ptr, ptr %4, align 8, !tbaa !4
  %74 = getelementptr inbounds nuw %struct.AVSContext, ptr %73, i32 0, i32 58
  %75 = getelementptr inbounds [8 x ptr], ptr %74, i64 0, i64 0
  store ptr @intra_pred_vert, ptr %75, align 8, !tbaa !65
  %76 = load ptr, ptr %4, align 8, !tbaa !4
  %77 = getelementptr inbounds nuw %struct.AVSContext, ptr %76, i32 0, i32 58
  %78 = getelementptr inbounds [8 x ptr], ptr %77, i64 0, i64 1
  store ptr @intra_pred_horiz, ptr %78, align 8, !tbaa !65
  %79 = load ptr, ptr %4, align 8, !tbaa !4
  %80 = getelementptr inbounds nuw %struct.AVSContext, ptr %79, i32 0, i32 58
  %81 = getelementptr inbounds [8 x ptr], ptr %80, i64 0, i64 2
  store ptr @intra_pred_lp, ptr %81, align 8, !tbaa !65
  %82 = load ptr, ptr %4, align 8, !tbaa !4
  %83 = getelementptr inbounds nuw %struct.AVSContext, ptr %82, i32 0, i32 58
  %84 = getelementptr inbounds [8 x ptr], ptr %83, i64 0, i64 3
  store ptr @intra_pred_down_left, ptr %84, align 8, !tbaa !65
  %85 = load ptr, ptr %4, align 8, !tbaa !4
  %86 = getelementptr inbounds nuw %struct.AVSContext, ptr %85, i32 0, i32 58
  %87 = getelementptr inbounds [8 x ptr], ptr %86, i64 0, i64 4
  store ptr @intra_pred_down_right, ptr %87, align 8, !tbaa !65
  %88 = load ptr, ptr %4, align 8, !tbaa !4
  %89 = getelementptr inbounds nuw %struct.AVSContext, ptr %88, i32 0, i32 58
  %90 = getelementptr inbounds [8 x ptr], ptr %89, i64 0, i64 5
  store ptr @intra_pred_lp_left, ptr %90, align 8, !tbaa !65
  %91 = load ptr, ptr %4, align 8, !tbaa !4
  %92 = getelementptr inbounds nuw %struct.AVSContext, ptr %91, i32 0, i32 58
  %93 = getelementptr inbounds [8 x ptr], ptr %92, i64 0, i64 6
  store ptr @intra_pred_lp_top, ptr %93, align 8, !tbaa !65
  %94 = load ptr, ptr %4, align 8, !tbaa !4
  %95 = getelementptr inbounds nuw %struct.AVSContext, ptr %94, i32 0, i32 58
  %96 = getelementptr inbounds [8 x ptr], ptr %95, i64 0, i64 7
  store ptr @intra_pred_dc_128, ptr %96, align 8, !tbaa !65
  %97 = load ptr, ptr %4, align 8, !tbaa !4
  %98 = getelementptr inbounds nuw %struct.AVSContext, ptr %97, i32 0, i32 59
  %99 = getelementptr inbounds [7 x ptr], ptr %98, i64 0, i64 0
  store ptr @intra_pred_lp, ptr %99, align 8, !tbaa !65
  %100 = load ptr, ptr %4, align 8, !tbaa !4
  %101 = getelementptr inbounds nuw %struct.AVSContext, ptr %100, i32 0, i32 59
  %102 = getelementptr inbounds [7 x ptr], ptr %101, i64 0, i64 1
  store ptr @intra_pred_horiz, ptr %102, align 8, !tbaa !65
  %103 = load ptr, ptr %4, align 8, !tbaa !4
  %104 = getelementptr inbounds nuw %struct.AVSContext, ptr %103, i32 0, i32 59
  %105 = getelementptr inbounds [7 x ptr], ptr %104, i64 0, i64 2
  store ptr @intra_pred_vert, ptr %105, align 8, !tbaa !65
  %106 = load ptr, ptr %4, align 8, !tbaa !4
  %107 = getelementptr inbounds nuw %struct.AVSContext, ptr %106, i32 0, i32 59
  %108 = getelementptr inbounds [7 x ptr], ptr %107, i64 0, i64 3
  store ptr @intra_pred_plane, ptr %108, align 8, !tbaa !65
  %109 = load ptr, ptr %4, align 8, !tbaa !4
  %110 = getelementptr inbounds nuw %struct.AVSContext, ptr %109, i32 0, i32 59
  %111 = getelementptr inbounds [7 x ptr], ptr %110, i64 0, i64 4
  store ptr @intra_pred_lp_left, ptr %111, align 8, !tbaa !65
  %112 = load ptr, ptr %4, align 8, !tbaa !4
  %113 = getelementptr inbounds nuw %struct.AVSContext, ptr %112, i32 0, i32 59
  %114 = getelementptr inbounds [7 x ptr], ptr %113, i64 0, i64 5
  store ptr @intra_pred_lp_top, ptr %114, align 8, !tbaa !65
  %115 = load ptr, ptr %4, align 8, !tbaa !4
  %116 = getelementptr inbounds nuw %struct.AVSContext, ptr %115, i32 0, i32 59
  %117 = getelementptr inbounds [7 x ptr], ptr %116, i64 0, i64 6
  store ptr @intra_pred_dc_128, ptr %117, align 8, !tbaa !65
  %118 = load ptr, ptr %4, align 8, !tbaa !4
  %119 = getelementptr inbounds nuw %struct.AVSContext, ptr %118, i32 0, i32 35
  %120 = getelementptr inbounds [24 x %struct.cavs_vector], ptr %119, i64 0, i64 7
  call void @llvm.memcpy.p0.p0.i64(ptr align 8 %120, ptr align 2 @un_mv, i64 8, i1 false), !tbaa.struct !77
  %121 = load ptr, ptr %4, align 8, !tbaa !4
  %122 = getelementptr inbounds nuw %struct.AVSContext, ptr %121, i32 0, i32 35
  %123 = getelementptr inbounds [24 x %struct.cavs_vector], ptr %122, i64 0, i64 19
  call void @llvm.memcpy.p0.p0.i64(ptr align 8 %123, ptr align 2 @un_mv, i64 8, i1 false), !tbaa.struct !77
  store i32 0, ptr %2, align 4
  store i32 1, ptr %6, align 4
  br label %124

124:                                              ; preds = %66, %65
  call void @llvm.lifetime.end.p0(i64 64, ptr %5) #10
  call void @llvm.lifetime.end.p0(i64 8, ptr %4) #10
  %125 = load i32, ptr %2, align 4
  ret i32 %125
}