; Function Attrs: cold nounwind optsize uwtable
define range(i32 -12, 1) i32 @ff_cavs_init(ptr noundef %0) local_unnamed_addr #8 {
  %2 = alloca [64 x i8], align 16
  %3 = getelementptr inbounds nuw i8, ptr %0, i64 32
  %4 = load ptr, ptr %3, align 8, !tbaa !78
  call void @llvm.lifetime.start.p0(i64 64, ptr nonnull %2) #14
  %5 = getelementptr inbounds nuw i8, ptr %4, i64 8
  tail call void @ff_blockdsp_init(ptr noundef nonnull %5) #14
  %6 = getelementptr inbounds nuw i8, ptr %4, i64 40
  tail call void @ff_h264chroma_init(ptr noundef nonnull %6, i32 noundef 8) #14
  %7 = getelementptr inbounds nuw i8, ptr %4, i64 104
  tail call void @ff_videodsp_init(ptr noundef nonnull %7, i32 noundef 8) #14
  %8 = getelementptr inbounds nuw i8, ptr %4, i64 120
  tail call void @ff_cavsdsp_init(ptr noundef nonnull %8) #14
  %9 = getelementptr inbounds nuw i8, ptr %4, i64 672
  %10 = load i32, ptr %9, align 8, !tbaa !93
  call void @ff_init_scantable_permutation(ptr noundef nonnull %2, i32 noundef %10) #14
  %11 = getelementptr inbounds nuw i8, ptr %4, i64 1208
  call void @ff_permute_scantable(ptr noundef nonnull %11, ptr noundef nonnull @ff_zigzag_direct, ptr noundef nonnull %2) #14
  store ptr %0, ptr %4, align 8, !tbaa !65
  %12 = getelementptr inbounds nuw i8, ptr %0, i64 136
  store i32 0, ptr %12, align 8, !tbaa !94
  %13 = call ptr @av_frame_alloc() #14
  %14 = getelementptr inbounds nuw i8, ptr %4, i64 712
  store ptr %13, ptr %14, align 8, !tbaa !72
  %15 = call ptr @av_frame_alloc() #14
  %16 = getelementptr inbounds nuw i8, ptr %4, i64 728
  store ptr %15, ptr %16, align 8, !tbaa !60
  %17 = call ptr @av_frame_alloc() #14
  %18 = getelementptr inbounds nuw i8, ptr %4, i64 744
  store ptr %17, ptr %18, align 8, !tbaa !60
  %19 = load ptr, ptr %14, align 8, !tbaa !72
  %.not = icmp eq ptr %19, null
  br i1 %.not, label %42, label %20

20:                                               ; preds = %1
  %21 = load ptr, ptr %16, align 8, !tbaa !60
  %.not35 = icmp eq ptr %21, null
  %.not36 = icmp eq ptr %17, null
  %or.cond = select i1 %.not35, i1 true, i1 %.not36
  br i1 %or.cond, label %42, label %22

22:                                               ; preds = %20
  %23 = getelementptr inbounds nuw i8, ptr %4, i64 1176
  store i32 0, ptr %23, align 8, !tbaa !56
  %24 = getelementptr inbounds nuw i8, ptr %4, i64 1180
  store i32 8, ptr %24, align 4, !tbaa !56
  %25 = getelementptr inbounds nuw i8, ptr %4, i64 1376
  store ptr @intra_pred_vert, ptr %25, align 8, !tbaa !58
  %26 = getelementptr inbounds nuw i8, ptr %4, i64 1384
  store ptr @intra_pred_horiz, ptr %26, align 8, !tbaa !58
  %27 = getelementptr inbounds nuw i8, ptr %4, i64 1392
  store ptr @intra_pred_lp, ptr %27, align 8, !tbaa !58
  %28 = getelementptr inbounds nuw i8, ptr %4, i64 1400
  store ptr @intra_pred_down_left, ptr %28, align 8, !tbaa !58
  %29 = getelementptr inbounds nuw i8, ptr %4, i64 1408
  store ptr @intra_pred_down_right, ptr %29, align 8, !tbaa !58
  %30 = getelementptr inbounds nuw i8, ptr %4, i64 1416
  store ptr @intra_pred_lp_left, ptr %30, align 8, !tbaa !58
  %31 = getelementptr inbounds nuw i8, ptr %4, i64 1424
  store ptr @intra_pred_lp_top, ptr %31, align 8, !tbaa !58
  %32 = getelementptr inbounds nuw i8, ptr %4, i64 1432
  store ptr @intra_pred_dc_128, ptr %32, align 8, !tbaa !58
  %33 = getelementptr inbounds nuw i8, ptr %4, i64 1440
  store ptr @intra_pred_lp, ptr %33, align 8, !tbaa !58
  %34 = getelementptr inbounds nuw i8, ptr %4, i64 1448
  store ptr @intra_pred_horiz, ptr %34, align 8, !tbaa !58
  %35 = getelementptr inbounds nuw i8, ptr %4, i64 1456
  store ptr @intra_pred_vert, ptr %35, align 8, !tbaa !58
  %36 = getelementptr inbounds nuw i8, ptr %4, i64 1464
  store ptr @intra_pred_plane, ptr %36, align 8, !tbaa !58
  %37 = getelementptr inbounds nuw i8, ptr %4, i64 1472
  store ptr @intra_pred_lp_left, ptr %37, align 8, !tbaa !58
  %38 = getelementptr inbounds nuw i8, ptr %4, i64 1480
  store ptr @intra_pred_lp_top, ptr %38, align 8, !tbaa !58
  %39 = getelementptr inbounds nuw i8, ptr %4, i64 1488
  store ptr @intra_pred_dc_128, ptr %39, align 8, !tbaa !58
  %40 = getelementptr inbounds nuw i8, ptr %4, i64 952
  store i64 -281470681743360, ptr %40, align 8
  %41 = getelementptr inbounds nuw i8, ptr %4, i64 1048
  store i64 -281470681743360, ptr %41, align 8
  br label %42

42:                                               ; preds = %1, %20, %22
  %.0 = phi i32 [ 0, %22 ], [ -12, %20 ], [ -12, %1 ]
  call void @llvm.lifetime.end.p0(i64 64, ptr nonnull %2) #14
  ret i32 %.0
}